target datalayout = "e-m:e-p270:32:32-p271:32:32-p272:64:64-i64:64-i128:128-f80:128-n8:16:32:64-S128"
target triple = "x86_64-pc-linux-gnu"

%struct.psa_hash_operation_s = type { i32, %union.psa_driver_hash_context_t }
%union.psa_driver_hash_context_t = type { %struct.mbedtls_psa_hash_operation_t }
%struct.mbedtls_psa_hash_operation_t = type { i32, %union.anon.0 }
%union.anon.0 = type { %struct.mbedtls_sha512_context }
%struct.mbedtls_sha512_context = type { [2 x i64], [8 x i64], [128 x i8], i32 }
%struct.psa_mac_operation_s = type { i32, i8, i8, %union.psa_driver_mac_context_t }
%union.psa_driver_mac_context_t = type { %struct.mbedtls_psa_mac_operation_t }
%struct.mbedtls_psa_mac_operation_t = type { i32, %union.anon.2 }
%union.anon.2 = type { %struct.mbedtls_psa_hmac_operation_t }
%struct.mbedtls_psa_hmac_operation_t = type { i32, %struct.psa_hash_operation_s, [128 x i8] }

; Function Attrs: nounwind uwtable
define hidden i32 @psa_driver_wrapper_mac_abort(ptr noundef %0) #0 {
  %2 = alloca i32, align 4
  %3 = alloca ptr, align 8
  store ptr %0, ptr %3, align 8
  %4 = load ptr, ptr %3, align 8
  %5 = getelementptr inbounds %struct.psa_mac_operation_s, ptr %4, i32 0, i32 0
  %6 = load i32, ptr %5, align 8
  switch i32 %6, label %11 [
    i32 1, label %7
  ]

7:                                                ; preds = %1
  %8 = load ptr, ptr %3, align 8
  %9 = getelementptr inbounds %struct.psa_mac_operation_s, ptr %8, i32 0, i32 3
  %10 = call i32 @mbedtls_psa_mac_abort(ptr noundef %9)
  store i32 %10, ptr %2, align 4
  br label %12

11:                                               ; preds = %1
  store i32 -135, ptr %2, align 4
  br label %12

12:                                               ; preds = %11, %7
  %13 = load i32, ptr %2, align 4
  ret i32 %13
}